target datalayout = "e-m:e-p270:32:32-p271:32:32-p272:64:64-i64:64-i128:128-f80:128-n8:16:32:64-S128"
target triple = "x86_64-pc-linux-gnu"

%struct.expert_field = type { i32, i32 }
%struct._packet_info = type { ptr, ptr, i32, i32, %struct.nstime_t, %struct.nstime_t, %struct.nstime_t, i8, ptr, ptr, ptr, ptr, %struct._address, %struct._address, %struct._address, %struct._address, %struct._address, %struct._address, i32, ptr, i8, [3 x i8], %struct.anon, i32, i32, i32, i32, ptr, i8, ptr, ptr, i16, i16, i32, i32, i16, i32, i32, ptr, ptr, ptr, i8, i8, i16, i16, i16, i32, i16, i16, ptr, ptr, ptr, ptr, ptr, i32, i32 }
%struct.nstime_t = type { i64, i32 }
%struct._address = type { i32, i32, ptr, ptr }
%struct.anon = type { i8, [3 x i8] }

@hf_ansi_637_tele_cb_num_digit_mode = internal global i32 0, align 4
@hf_ansi_637_tele_cb_num_ton = internal global i32 0, align 4
@hf_ansi_637_tele_cb_num_plan = internal global i32 0, align 4
@hf_ansi_637_tele_cb_num_num_fields = internal global i32 0, align 4
@hf_ansi_637_tele_cb_num_num_fields07f8 = internal global i32 0, align 4
@hf_ansi_637_tele_cb_num_number = internal global i32 0, align 4
@hf_ansi_637_reserved_bits_8_07 = internal global i32 0, align 4
@hf_ansi_637_reserved_bits_8_7f = internal global i32 0, align 4
@ei_ansi_637_short_data = internal global %struct.expert_field zeroinitializer, align 4
@ansi_637_bigbuf = internal global [1024 x i8] zeroinitializer, align 16
@.str.374 = private unnamed_addr constant [11 x i8] c"Number: %s\00", align 1
@air_digits = internal constant [16 x i8] c"?1234567890*#???", align 16

; Function Attrs: alwaysinline nounwind
define internal ptr @memset.inline(ptr %0, i32 %1, i64 %2) #2 {
  %4 = alloca ptr, align 8
  %5 = alloca i32, align 4
  %6 = alloca i64, align 8
  store ptr %0, ptr %4, align 8
  store i32 %1, ptr %5, align 4
  store i64 %2, ptr %6, align 8
  %7 = load ptr, ptr %4, align 8
  %8 = load i32, ptr %5, align 4
  %9 = load i64, ptr %6, align 8
  %10 = load ptr, ptr %4, align 8
  %11 = call i64 @llvm.objectsize.i64.p0(ptr %10, i1 false, i1 true, i1 true)
  %12 = call ptr @__memset_chk(ptr noundef %7, i32 noundef %8, i64 noundef %9, i64 noundef %11) #7
  ret ptr %12
}

; Function Attrs: null_pointer_is_valid sspstrong uwtable
define internal void @tele_param_cb_num(ptr noundef %0, ptr noundef %1, ptr noundef %2, i32 noundef %3, i32 noundef %4, ptr noundef %5) #0 {
  %7 = alloca ptr, align 8
  %8 = alloca ptr, align 8
  %9 = alloca ptr, align 8
  %10 = alloca i32, align 4
  %11 = alloca i32, align 4
  %12 = alloca ptr, align 8
  %13 = alloca i8, align 1
  %14 = alloca i8, align 1
  %15 = alloca i8, align 1
  %16 = alloca i8, align 1
  %17 = alloca ptr, align 8
  %18 = alloca i32, align 4
  %19 = alloca i32, align 4
  %20 = alloca i32, align 4
  %21 = alloca i32, align 4
  store ptr %0, ptr %7, align 8
  store ptr %1, ptr %8, align 8
  store ptr %2, ptr %9, align 8
  store i32 %3, ptr %10, align 4
  store i32 %4, ptr %11, align 4
  store ptr %5, ptr %12, align 8
  call void @llvm.lifetime.start.p0(i64 1, ptr %13) #7
  call void @llvm.lifetime.start.p0(i64 1, ptr %14) #7
  call void @llvm.lifetime.start.p0(i64 1, ptr %15) #7
  call void @llvm.lifetime.start.p0(i64 1, ptr %16) #7
  call void @llvm.lifetime.start.p0(i64 8, ptr %17) #7
  call void @llvm.lifetime.start.p0(i64 4, ptr %18) #7
  call void @llvm.lifetime.start.p0(i64 4, ptr %19) #7
  call void @llvm.lifetime.start.p0(i64 4, ptr %20) #7
  %22 = load i32, ptr %10, align 4
  %23 = icmp ult i32 %22, 2
  br i1 %23, label %24, label %31

24:                                               ; preds = %6
  %25 = load ptr, ptr %9, align 8
  %26 = load ptr, ptr %8, align 8
  %27 = load ptr, ptr %7, align 8
  %28 = load i32, ptr %11, align 4
  %29 = load i32, ptr %10, align 4
  %30 = call ptr @proto_tree_add_expert(ptr noundef %25, ptr noundef %26, ptr noundef @ei_ansi_637_short_data, ptr noundef %27, i32 noundef %28, i32 noundef %29)
  store i32 1, ptr %21, align 4
  br label %239

31:                                               ; preds = %6
  %32 = load ptr, ptr %9, align 8
  %33 = load i32, ptr @hf_ansi_637_tele_cb_num_digit_mode, align 4
  %34 = load ptr, ptr %7, align 8
  %35 = load i32, ptr %11, align 4
  %36 = call ptr @proto_tree_add_item(ptr noundef %32, i32 noundef %33, ptr noundef %34, i32 noundef %35, i32 noundef 1, i32 noundef 0)
  %37 = load ptr, ptr %7, align 8
  %38 = load i32, ptr %11, align 4
  %39 = call zeroext i8 @tvb_get_uint8(ptr noundef %37, i32 noundef %38)
  store i8 %39, ptr %13, align 1
  %40 = load i8, ptr %13, align 1
  %41 = zext i8 %40 to i32
  %42 = and i32 %41, 128
  %43 = icmp ne i32 %42, 0
  br i1 %43, label %44, label %109

44:                                               ; preds = %31
  %45 = load ptr, ptr %9, align 8
  %46 = load i32, ptr @hf_ansi_637_tele_cb_num_ton, align 4
  %47 = load ptr, ptr %7, align 8
  %48 = load i32, ptr %11, align 4
  %49 = call ptr @proto_tree_add_item(ptr noundef %45, i32 noundef %46, ptr noundef %47, i32 noundef %48, i32 noundef 1, i32 noundef 0)
  %50 = load ptr, ptr %9, align 8
  %51 = load i32, ptr @hf_ansi_637_tele_cb_num_plan, align 4
  %52 = load ptr, ptr %7, align 8
  %53 = load i32, ptr %11, align 4
  %54 = call ptr @proto_tree_add_item(ptr noundef %50, i32 noundef %51, ptr noundef %52, i32 noundef %53, i32 noundef 1, i32 noundef 0)
  %55 = load i32, ptr %11, align 4
  %56 = add i32 %55, 1
  store i32 %56, ptr %11, align 4
  %57 = load ptr, ptr %9, align 8
  %58 = load i32, ptr @hf_ansi_637_tele_cb_num_num_fields, align 4
  %59 = load ptr, ptr %7, align 8
  %60 = load i32, ptr %11, align 4
  %61 = call ptr @proto_tree_add_item(ptr noundef %57, i32 noundef %58, ptr noundef %59, i32 noundef %60, i32 noundef 1, i32 noundef 0)
  %62 = load ptr, ptr %7, align 8
  %63 = load i32, ptr %11, align 4
  %64 = call zeroext i8 @tvb_get_uint8(ptr noundef %62, i32 noundef %63)
  store i8 %64, ptr %15, align 1
  %65 = load i8, ptr %15, align 1
  %66 = zext i8 %65 to i32
  %67 = icmp eq i32 %66, 0
  br i1 %67, label %68, label %69

68:                                               ; preds = %44
  store i32 1, ptr %21, align 4
  br label %239

69:                                               ; preds = %44
  %70 = load i32, ptr %10, align 4
  %71 = sub i32 %70, 2
  %72 = load i8, ptr %15, align 1
  %73 = zext i8 %72 to i32
  %74 = icmp ult i32 %71, %73
  br i1 %74, label %75, label %83

75:                                               ; preds = %69
  %76 = load ptr, ptr %9, align 8
  %77 = load ptr, ptr %8, align 8
  %78 = load ptr, ptr %7, align 8
  %79 = load i32, ptr %11, align 4
  %80 = load i32, ptr %10, align 4
  %81 = sub i32 %80, 2
  %82 = call ptr @proto_tree_add_expert(ptr noundef %76, ptr noundef %77, ptr noundef @ei_ansi_637_short_data, ptr noundef %78, i32 noundef %79, i32 noundef %81)
  store i32 1, ptr %21, align 4
  br label %239

83:                                               ; preds = %69
  %84 = load i32, ptr %11, align 4
  %85 = add i32 %84, 1
  store i32 %85, ptr %11, align 4
  %86 = load ptr, ptr %8, align 8
  %87 = getelementptr inbounds nuw %struct._packet_info, ptr %86, i32 0, i32 51
  %88 = load ptr, ptr %87, align 8
  %89 = load ptr, ptr %7, align 8
  %90 = load i32, ptr %11, align 4
  %91 = load i8, ptr %15, align 1
  %92 = zext i8 %91 to i32
  %93 = call ptr @tvb_get_string_enc(ptr noundef %88, ptr noundef %89, i32 noundef %90, i32 noundef %92, i32 noundef 0)
  store ptr %93, ptr %17, align 8
  %94 = load ptr, ptr %9, align 8
  %95 = load i32, ptr @hf_ansi_637_tele_cb_num_number, align 4
  %96 = load ptr, ptr %7, align 8
  %97 = load i32, ptr %11, align 4
  %98 = load i8, ptr %15, align 1
  %99 = zext i8 %98 to i32
  %100 = load ptr, ptr %17, align 8
  %101 = load ptr, ptr %8, align 8
  %102 = getelementptr inbounds nuw %struct._packet_info, ptr %101, i32 0, i32 51
  %103 = load ptr, ptr %102, align 8
  %104 = load ptr, ptr %17, align 8
  %105 = load i8, ptr %15, align 1
  %106 = zext i8 %105 to i64
  %107 = call ptr @format_text(ptr noundef %103, ptr noundef %104, i64 noundef %106)
  %108 = call ptr (ptr, i32, ptr, i32, i32, ptr, ptr, ...) @proto_tree_add_string_format(ptr noundef %94, i32 noundef %95, ptr noundef %96, i32 noundef %97, i32 noundef %99, ptr noundef %100, ptr noundef @.str.374, ptr noundef %107)
  br label %238

109:                                              ; preds = %31
  %110 = load i32, ptr %11, align 4
  %111 = add i32 %110, 1
  store i32 %111, ptr %11, align 4
  %112 = load ptr, ptr %7, align 8
  %113 = load i32, ptr %11, align 4
  %114 = call zeroext i8 @tvb_get_uint8(ptr noundef %112, i32 noundef %113)
  store i8 %114, ptr %14, align 1
  %115 = load i8, ptr %13, align 1
  %116 = zext i8 %115 to i32
  %117 = and i32 %116, 127
  %118 = shl i32 %117, 1
  %119 = load i8, ptr %14, align 1
  %120 = zext i8 %119 to i32
  %121 = and i32 %120, 128
  %122 = ashr i32 %121, 7
  %123 = or i32 %118, %122
  %124 = trunc i32 %123 to i8
  store i8 %124, ptr %15, align 1
  %125 = load ptr, ptr %9, align 8
  %126 = load i32, ptr @hf_ansi_637_tele_cb_num_num_fields07f8, align 4
  %127 = load ptr, ptr %7, align 8
  %128 = load i32, ptr %11, align 4
  %129 = call ptr @proto_tree_add_item(ptr noundef %125, i32 noundef %126, ptr noundef %127, i32 noundef %128, i32 noundef 2, i32 noundef 0)
  %130 = load i8, ptr %14, align 1
  store i8 %130, ptr %13, align 1
  store i8 0, ptr %16, align 1
  %131 = load i8, ptr %15, align 1
  %132 = zext i8 %131 to i32
  %133 = icmp sgt i32 %132, 0
  br i1 %133, label %134, label %223

134:                                              ; preds = %109
  %135 = load i8, ptr %15, align 1
  %136 = zext i8 %135 to i32
  %137 = sub i32 %136, 1
  %138 = mul i32 %137, 4
  store i32 %138, ptr %20, align 4
  %139 = load i32, ptr %20, align 4
  %140 = udiv i32 %139, 8
  %141 = load i32, ptr %20, align 4
  %142 = urem i32 %141, 8
  %143 = icmp ne i32 %142, 0
  %144 = select i1 %143, i32 1, i32 0
  %145 = add i32 %140, %144
  store i32 %145, ptr %19, align 4
  %146 = load i32, ptr %10, align 4
  %147 = sub i32 %146, 2
  %148 = load i32, ptr %19, align 4
  %149 = icmp ult i32 %147, %148
  br i1 %149, label %150, label %158

150:                                              ; preds = %134
  %151 = load ptr, ptr %9, align 8
  %152 = load ptr, ptr %8, align 8
  %153 = load ptr, ptr %7, align 8
  %154 = load i32, ptr %11, align 4
  %155 = load i32, ptr %10, align 4
  %156 = sub i32 %155, 2
  %157 = call ptr @proto_tree_add_expert(ptr noundef %151, ptr noundef %152, ptr noundef @ei_ansi_637_short_data, ptr noundef %153, i32 noundef %154, i32 noundef %156)
  store i32 1, ptr %21, align 4
  br label %239

158:                                              ; preds = %134
  %159 = load i8, ptr %15, align 1
  %160 = zext i8 %159 to i32
  %161 = and i32 %160, 1
  %162 = trunc i32 %161 to i8
  store i8 %162, ptr %16, align 1
  %163 = call ptr @memset.inline(ptr noundef @ansi_637_bigbuf, i32 noundef 0, i64 noundef 1024) #7
  %164 = load i32, ptr %11, align 4
  store i32 %164, ptr %18, align 4
  %165 = load i32, ptr %11, align 4
  %166 = add i32 %165, 1
  store i32 %166, ptr %11, align 4
  store i32 0, ptr %20, align 4
  br label %167

167:                                              ; preds = %190, %158
  %168 = load i32, ptr %20, align 4
  %169 = load i8, ptr %15, align 1
  %170 = zext i8 %169 to i32
  %171 = icmp ult i32 %168, %170
  br i1 %171, label %172, label %214

172:                                              ; preds = %167
  %173 = load i8, ptr %13, align 1
  %174 = zext i8 %173 to i32
  %175 = and i32 %174, 120
  %176 = ashr i32 %175, 3
  %177 = sext i32 %176 to i64
  %178 = getelementptr [16 x i8], ptr @air_digits, i64 0, i64 %177
  %179 = load i8, ptr %178, align 1
  %180 = load i32, ptr %20, align 4
  %181 = zext i32 %180 to i64
  %182 = getelementptr [1024 x i8], ptr @ansi_637_bigbuf, i64 0, i64 %181
  store i8 %179, ptr %182, align 1
  %183 = load i32, ptr %20, align 4
  %184 = add i32 %183, 1
  store i32 %184, ptr %20, align 4
  %185 = load i32, ptr %20, align 4
  %186 = load i8, ptr %15, align 1
  %187 = zext i8 %186 to i32
  %188 = icmp uge i32 %185, %187
  br i1 %188, label %189, label %190

189:                                              ; preds = %172
  br label %214

190:                                              ; preds = %172
  %191 = load ptr, ptr %7, align 8
  %192 = load i32, ptr %11, align 4
  %193 = call zeroext i8 @tvb_get_uint8(ptr noundef %191, i32 noundef %192)
  store i8 %193, ptr %14, align 1
  %194 = load i32, ptr %11, align 4
  %195 = add i32 %194, 1
  store i32 %195, ptr %11, align 4
  %196 = load i8, ptr %13, align 1
  %197 = zext i8 %196 to i32
  %198 = and i32 %197, 7
  %199 = shl i32 %198, 1
  %200 = load i8, ptr %14, align 1
  %201 = zext i8 %200 to i32
  %202 = and i32 %201, 128
  %203 = ashr i32 %202, 7
  %204 = or i32 %199, %203
  %205 = sext i32 %204 to i64
  %206 = getelementptr [16 x i8], ptr @air_digits, i64 0, i64 %205
  %207 = load i8, ptr %206, align 1
  %208 = load i32, ptr %20, align 4
  %209 = zext i32 %208 to i64
  %210 = getelementptr [1024 x i8], ptr @ansi_637_bigbuf, i64 0, i64 %209
  store i8 %207, ptr %210, align 1
  %211 = load i8, ptr %14, align 1
  store i8 %211, ptr %13, align 1
  %212 = load i32, ptr %20, align 4
  %213 = add i32 %212, 1
  store i32 %213, ptr %20, align 4
  br label %167, !llvm.loop !17

214:                                              ; preds = %189, %167
  %215 = load ptr, ptr %9, align 8
  %216 = load i32, ptr @hf_ansi_637_tele_cb_num_number, align 4
  %217 = load ptr, ptr %7, align 8
  %218 = load i32, ptr %18, align 4
  %219 = load i32, ptr %11, align 4
  %220 = load i32, ptr %18, align 4
  %221 = sub i32 %219, %220
  %222 = call ptr (ptr, i32, ptr, i32, i32, ptr, ptr, ...) @proto_tree_add_string_format(ptr noundef %215, i32 noundef %216, ptr noundef %217, i32 noundef %218, i32 noundef %221, ptr noundef @ansi_637_bigbuf, ptr noundef @.str.374, ptr noundef @ansi_637_bigbuf)
  br label %223

223:                                              ; preds = %214, %109
  %224 = load ptr, ptr %9, align 8
  %225 = load i8, ptr %16, align 1
  %226 = zext i8 %225 to i32
  %227 = icmp ne i32 %226, 0
  br i1 %227, label %228, label %230

228:                                              ; preds = %223
  %229 = load i32, ptr @hf_ansi_637_reserved_bits_8_07, align 4
  br label %232

230:                                              ; preds = %223
  %231 = load i32, ptr @hf_ansi_637_reserved_bits_8_7f, align 4
  br label %232

232:                                              ; preds = %230, %228
  %233 = phi i32 [ %229, %228 ], [ %231, %230 ]
  %234 = load ptr, ptr %7, align 8
  %235 = load i32, ptr %11, align 4
  %236 = sub i32 %235, 1
  %237 = call ptr @proto_tree_add_item(ptr noundef %224, i32 noundef %233, ptr noundef %234, i32 noundef %236, i32 noundef 1, i32 noundef 0)
  br label %238

238:                                              ; preds = %232, %83
  store i32 0, ptr %21, align 4
  br label %239

239:                                              ; preds = %238, %150, %75, %68, %24
  call void @llvm.lifetime.end.p0(i64 4, ptr %20) #7
  call void @llvm.lifetime.end.p0(i64 4, ptr %19) #7
  call void @llvm.lifetime.end.p0(i64 4, ptr %18) #7
  call void @llvm.lifetime.end.p0(i64 8, ptr %17) #7
  call void @llvm.lifetime.end.p0(i64 1, ptr %16) #7
  call void @llvm.lifetime.end.p0(i64 1, ptr %15) #7
  call void @llvm.lifetime.end.p0(i64 1, ptr %14) #7
  call void @llvm.lifetime.end.p0(i64 1, ptr %13) #7
  %240 = load i32, ptr %21, align 4
  switch i32 %240, label %242 [
    i32 0, label %241
    i32 1, label %241
  ]

241:                                              ; preds = %239, %239
  ret void

242:                                              ; preds = %239
  unreachable
}