; Function Attrs: null_pointer_is_valid sspstrong uwtable
define internal void @tele_param_cb_num(ptr noundef %0, ptr noundef %1, ptr noundef %2, i32 noundef %3, i32 noundef %4, ptr readnone captures(none) %5) #0 {
  %7 = icmp ult i32 %3, 2
  br i1 %7, label %8, label %10

8:                                                ; preds = %6
  %9 = tail call ptr @proto_tree_add_expert(ptr noundef %2, ptr noundef %1, ptr noundef nonnull @ei_ansi_637_short_data, ptr noundef %0, i32 noundef %4, i32 noundef %3)
  br label %95

10:                                               ; preds = %6
  %11 = load i32, ptr @hf_ansi_637_tele_cb_num_digit_mode, align 4
  %12 = tail call ptr @proto_tree_add_item(ptr noundef %2, i32 noundef %11, ptr noundef %0, i32 noundef %4, i32 noundef 1, i32 noundef 0)
  %13 = tail call zeroext i8 @tvb_get_uint8(ptr noundef %0, i32 noundef %4)
  %.not = icmp sgt i8 %13, -1
  br i1 %.not, label %40, label %14

14:                                               ; preds = %10
  %15 = load i32, ptr @hf_ansi_637_tele_cb_num_ton, align 4
  %16 = tail call ptr @proto_tree_add_item(ptr noundef %2, i32 noundef %15, ptr noundef %0, i32 noundef %4, i32 noundef 1, i32 noundef 0)
  %17 = load i32, ptr @hf_ansi_637_tele_cb_num_plan, align 4
  %18 = tail call ptr @proto_tree_add_item(ptr noundef %2, i32 noundef %17, ptr noundef %0, i32 noundef %4, i32 noundef 1, i32 noundef 0)
  %19 = add i32 %4, 1
  %20 = load i32, ptr @hf_ansi_637_tele_cb_num_num_fields, align 4
  %21 = tail call ptr @proto_tree_add_item(ptr noundef %2, i32 noundef %20, ptr noundef %0, i32 noundef %19, i32 noundef 1, i32 noundef 0)
  %22 = tail call zeroext i8 @tvb_get_uint8(ptr noundef %0, i32 noundef %19)
  %23 = zext i8 %22 to i32
  %24 = icmp eq i8 %22, 0
  br i1 %24, label %95, label %25

25:                                               ; preds = %14
  %26 = add i32 %3, -2
  %27 = icmp ult i32 %26, %23
  br i1 %27, label %28, label %30

28:                                               ; preds = %25
  %29 = tail call ptr @proto_tree_add_expert(ptr noundef %2, ptr noundef %1, ptr noundef nonnull @ei_ansi_637_short_data, ptr noundef %0, i32 noundef %19, i32 noundef %26)
  br label %95

30:                                               ; preds = %25
  %31 = add i32 %4, 2
  %32 = getelementptr inbounds nuw i8, ptr %1, i64 408
  %33 = load ptr, ptr %32, align 8
  %34 = tail call ptr @tvb_get_string_enc(ptr noundef %33, ptr noundef %0, i32 noundef %31, i32 noundef %23, i32 noundef 0)
  %35 = load i32, ptr @hf_ansi_637_tele_cb_num_number, align 4
  %36 = load ptr, ptr %32, align 8
  %37 = zext i8 %22 to i64
  %38 = tail call ptr @format_text(ptr noundef %36, ptr noundef %34, i64 noundef %37)
  %39 = tail call ptr (ptr, i32, ptr, i32, i32, ptr, ptr, ...) @proto_tree_add_string_format(ptr noundef %2, i32 noundef %35, ptr noundef %0, i32 noundef %31, i32 noundef %23, ptr noundef %34, ptr noundef nonnull @.str.374, ptr noundef %38)
  br label %95

40:                                               ; preds = %10
  %41 = add i32 %4, 1
  %42 = tail call zeroext i8 @tvb_get_uint8(ptr noundef %0, i32 noundef %41)
  %43 = tail call i8 @llvm.fshl.i8(i8 %13, i8 %42, i8 1)
  %.fr110 = freeze i8 %43
  %44 = load i32, ptr @hf_ansi_637_tele_cb_num_num_fields07f8, align 4
  %45 = tail call ptr @proto_tree_add_item(ptr noundef %2, i32 noundef %44, ptr noundef %0, i32 noundef %41, i32 noundef 2, i32 noundef 0)
  %.not101 = icmp eq i8 %.fr110, 0
  br i1 %.not101, label %.thread, label %47

.thread:                                          ; preds = %40
  %46 = load i32, ptr @hf_ansi_637_reserved_bits_8_7f, align 4
  br label %92

47:                                               ; preds = %40
  %48 = zext i8 %.fr110 to i32
  %49 = shl nuw nsw i32 %48, 2
  %50 = add nsw i32 %49, -4
  %51 = lshr i32 %50, 3
  %52 = lshr exact i32 %50, 2
  %.lobit = and i32 %52, 1
  %53 = add nuw nsw i32 %.lobit, %51
  %54 = add i32 %3, -2
  %55 = icmp ult i32 %54, %53
  br i1 %55, label %56, label %58

56:                                               ; preds = %47
  %57 = tail call ptr @proto_tree_add_expert(ptr noundef %2, ptr noundef %1, ptr noundef nonnull @ei_ansi_637_short_data, ptr noundef %0, i32 noundef %41, i32 noundef %54)
  br label %95

58:                                               ; preds = %47
  %59 = and i8 %.fr110, 1
  tail call void @llvm.memset.p0.i64(ptr noundef nonnull align 16 dereferenceable(1024) @ansi_637_bigbuf, i8 noundef 0, i64 noundef 1024, i1 noundef false) #7
  %60 = add i32 %4, 2
  %61 = zext i8 %.fr110 to i64
  br label %62

62:                                               ; preds = %58, %71
  %indvars.iv = phi i64 [ 0, %58 ], [ %indvars.iv.next, %71 ]
  %.1112 = phi i32 [ %60, %58 ], [ %73, %71 ]
  %.092111 = phi i8 [ %42, %58 ], [ %72, %71 ]
  %63 = zext i8 %.092111 to i32
  %64 = lshr i32 %63, 3
  %65 = and i32 %64, 15
  %66 = zext nneg i32 %65 to i64
  %67 = getelementptr [16 x i8], ptr @air_digits, i64 0, i64 %66
  %68 = load i8, ptr %67, align 1
  %69 = getelementptr [1024 x i8], ptr @ansi_637_bigbuf, i64 0, i64 %indvars.iv
  store i8 %68, ptr %69, align 2
  %70 = or disjoint i64 %indvars.iv, 1
  %.not103 = icmp samesign ult i64 %70, %61
  br i1 %.not103, label %71, label %84

71:                                               ; preds = %62
  %72 = tail call zeroext i8 @tvb_get_uint8(ptr noundef %0, i32 noundef %.1112)
  %73 = add i32 %.1112, 1
  %74 = shl nuw nsw i32 %63, 1
  %75 = and i32 %74, 14
  %76 = lshr i8 %72, 7
  %77 = zext nneg i8 %76 to i32
  %78 = or disjoint i32 %75, %77
  %79 = zext nneg i32 %78 to i64
  %80 = getelementptr [16 x i8], ptr @air_digits, i64 0, i64 %79
  %81 = load i8, ptr %80, align 1
  %82 = getelementptr [1024 x i8], ptr @ansi_637_bigbuf, i64 0, i64 %70
  store i8 %81, ptr %82, align 1
  %indvars.iv.next = add nuw nsw i64 %indvars.iv, 2
  %83 = icmp samesign ult i64 %indvars.iv.next, %61
  br i1 %83, label %62, label %84, !llvm.loop !17

84:                                               ; preds = %71, %62
  %.1.lcssa = phi i32 [ %73, %71 ], [ %.1112, %62 ]
  %85 = load i32, ptr @hf_ansi_637_tele_cb_num_number, align 4
  %86 = sub i32 %.1.lcssa, %41
  %87 = tail call ptr (ptr, i32, ptr, i32, i32, ptr, ptr, ...) @proto_tree_add_string_format(ptr noundef %2, i32 noundef %85, ptr noundef %0, i32 noundef %41, i32 noundef %86, ptr noundef nonnull @ansi_637_bigbuf, ptr noundef nonnull @.str.374, ptr noundef nonnull @ansi_637_bigbuf)
  %88 = icmp eq i8 %59, 0
  %89 = add i32 %.1.lcssa, -1
  %90 = load i32, ptr @hf_ansi_637_reserved_bits_8_07, align 4
  %91 = load i32, ptr @hf_ansi_637_reserved_bits_8_7f, align 4
  %spec.select = select i1 %88, i32 %91, i32 %90
  br label %92

92:                                               ; preds = %84, %.thread
  %.091108 = phi i32 [ %4, %.thread ], [ %89, %84 ]
  %93 = phi i32 [ %46, %.thread ], [ %spec.select, %84 ]
  %94 = tail call ptr @proto_tree_add_item(ptr noundef %2, i32 noundef %93, ptr noundef %0, i32 noundef %.091108, i32 noundef 1, i32 noundef 0)
  br label %95

95:                                               ; preds = %30, %92, %14, %56, %28, %8
  ret void
}